target datalayout = "e-m:e-p270:32:32-p271:32:32-p272:64:64-i64:64-i128:128-f80:128-n8:16:32:64-S128"
target triple = "x86_64-pc-linux-gnu"

%"struct.faiss::DistanceComputer" = type { ptr }
%"struct.faiss::HammingComputerDefault" = type { ptr, i32, i32 }
%"struct.faiss::(anonymous namespace)::FlatHammingDis.25" = type { %"struct.faiss::DistanceComputer", i32, ptr, i64, %"struct.faiss::HammingComputer8" }
%"struct.faiss::HammingComputer8" = type { i64 }

; Function Attrs: mustprogress nounwind uwtable
define linkonce_odr void @_ZN5faiss22HammingComputerDefault3setEPKhi(ptr noundef nonnull align 8 dereferenceable(16) %0, ptr noundef %1, i32 noundef %2) #0 comdat align 2 {
  %4 = alloca ptr, align 8
  %5 = alloca ptr, align 8
  %6 = alloca i32, align 4
  store ptr %0, ptr %4, align 8
  store ptr %1, ptr %5, align 8
  store i32 %2, ptr %6, align 4
  %7 = load ptr, ptr %4, align 8
  %8 = load ptr, ptr %5, align 8
  %9 = getelementptr inbounds %"struct.faiss::HammingComputerDefault", ptr %7, i32 0, i32 0
  store ptr %8, ptr %9, align 8
  %10 = load i32, ptr %6, align 4
  %11 = sdiv i32 %10, 8
  %12 = getelementptr inbounds %"struct.faiss::HammingComputerDefault", ptr %7, i32 0, i32 1
  store i32 %11, ptr %12, align 8
  %13 = load i32, ptr %6, align 4
  %14 = srem i32 %13, 8
  %15 = getelementptr inbounds %"struct.faiss::HammingComputerDefault", ptr %7, i32 0, i32 2
  store i32 %14, ptr %15, align 4
  ret void
}

; Function Attrs: mustprogress uwtable
define linkonce_odr void @_ZN5faiss22HammingComputerDefaultC2EPKhi(ptr noundef nonnull align 8 dereferenceable(16) %0, ptr noundef %1, i32 noundef %2) unnamed_addr #1 comdat align 2 {
  %4 = alloca ptr, align 8
  %5 = alloca ptr, align 8
  %6 = alloca i32, align 4
  store ptr %0, ptr %4, align 8
  store ptr %1, ptr %5, align 8
  store i32 %2, ptr %6, align 4
  %7 = load ptr, ptr %4, align 8
  %8 = load ptr, ptr %5, align 8
  %9 = load i32, ptr %6, align 4
  call void @_ZN5faiss22HammingComputerDefault3setEPKhi(ptr noundef nonnull align 8 dereferenceable(16) %7, ptr noundef %8, i32 noundef %9)
  ret void
}

; Function Attrs: mustprogress uwtable
define internal noundef float @_ZN5faiss12_GLOBAL__N_114FlatHammingDisINS_16HammingComputer8EE13symmetric_disEll(ptr noundef nonnull align 8 dereferenceable(40) %0, i64 noundef %1, i64 noundef %2) unnamed_addr #1 align 2 {
  %4 = alloca ptr, align 8
  %5 = alloca i64, align 8
  %6 = alloca i64, align 8
  %7 = alloca %"struct.faiss::HammingComputerDefault", align 8
  store ptr %0, ptr %4, align 8
  store i64 %1, ptr %5, align 8
  store i64 %2, ptr %6, align 8
  %8 = load ptr, ptr %4, align 8
  %9 = getelementptr inbounds %"struct.faiss::(anonymous namespace)::FlatHammingDis.25", ptr %8, i32 0, i32 2
  %10 = load ptr, ptr %9, align 8
  %11 = load i64, ptr %6, align 8
  %12 = getelementptr inbounds %"struct.faiss::(anonymous namespace)::FlatHammingDis.25", ptr %8, i32 0, i32 1
  %13 = load i32, ptr %12, align 8
  %14 = sext i32 %13 to i64
  %15 = mul nsw i64 %11, %14
  %16 = getelementptr inbounds i8, ptr %10, i64 %15
  %17 = getelementptr inbounds %"struct.faiss::(anonymous namespace)::FlatHammingDis.25", ptr %8, i32 0, i32 1
  %18 = load i32, ptr %17, align 8
  call void @_ZN5faiss22HammingComputerDefaultC2EPKhi(ptr noundef nonnull align 8 dereferenceable(16) %7, ptr noundef %16, i32 noundef %18)
  %19 = getelementptr inbounds %"struct.faiss::(anonymous namespace)::FlatHammingDis.25", ptr %8, i32 0, i32 2
  %20 = load ptr, ptr %19, align 8
  %21 = load i64, ptr %5, align 8
  %22 = getelementptr inbounds %"struct.faiss::(anonymous namespace)::FlatHammingDis.25", ptr %8, i32 0, i32 1
  %23 = load i32, ptr %22, align 8
  %24 = sext i32 %23 to i64
  %25 = mul nsw i64 %21, %24
  %26 = getelementptr inbounds i8, ptr %20, i64 %25
  %27 = call noundef i32 @_ZNK5faiss22HammingComputerDefault7hammingEPKh(ptr noundef nonnull align 8 dereferenceable(16) %7, ptr noundef %26)
  %28 = sitofp i32 %27 to float
  ret float %28
}